target datalayout = "e-m:e-p270:32:32-p271:32:32-p272:64:64-i64:64-i128:128-f80:128-n8:16:32:64-S128"
target triple = "x86_64-pc-linux-gnu"

%"struct.std::nothrow_t" = type { i8 }
%class.ElfSection = type <{ %struct.Elf64_Shdr, ptr, i32, [4 x i8] }>
%struct.Elf64_Shdr = type { i32, i32, i64, i64, i64, i64, i32, i32, i64, i64 }
%class.FileReader = type { ptr, ptr }
%class.ElfFile = type { ptr, ptr, ptr, ptr, ptr, ptr, ptr, ptr, i32, ptr, %struct.Elf64_Ehdr }
%struct.Elf64_Ehdr = type { [16 x i8], i16, i16, i32, i64, i64, i64, i32, i16, i16, i16, i16, i16, i16 }
%class.ElfSymbolTable = type <{ ptr, ptr, %class.ElfSection, i32, [4 x i8] }>
%class.ElfStringTable = type <{ ptr, i32, [4 x i8], %class.ElfSection, ptr, i32, [4 x i8] }>

@_ZSt7nothrow = external global %"struct.std::nothrow_t", align 1
@_ZTV10FileReader = hidden unnamed_addr constant { [3 x ptr] } { [3 x ptr] [ptr null, ptr null, ptr @_ZN10FileReader12set_positionEl] }, align 8

; Function Attrs: mustprogress nounwind uwtable
define linkonce_odr hidden void @_ZN14ElfSymbolTable8set_nextEPS_(ptr noundef nonnull align 8 dereferenceable(100) %0, ptr noundef %1) #1 comdat align 2 {
  %3 = alloca ptr, align 8
  %4 = alloca ptr, align 8
  store ptr %0, ptr %3, align 8
  store ptr %1, ptr %4, align 8
  %5 = load ptr, ptr %3, align 8
  %6 = load ptr, ptr %4, align 8
  %7 = getelementptr inbounds %class.ElfSymbolTable, ptr %5, i32 0, i32 0
  store ptr %6, ptr %7, align 8
  ret void
}

; Function Attrs: mustprogress nounwind uwtable
define linkonce_odr hidden void @_ZN14ElfStringTable8set_nextEPS_(ptr noundef nonnull align 8 dereferenceable(108) %0, ptr noundef %1) #1 comdat align 2 {
  %3 = alloca ptr, align 8
  %4 = alloca ptr, align 8
  store ptr %0, ptr %3, align 8
  store ptr %1, ptr %4, align 8
  %5 = load ptr, ptr %3, align 8
  %6 = load ptr, ptr %4, align 8
  %7 = getelementptr inbounds %class.ElfStringTable, ptr %5, i32 0, i32 0
  store ptr %6, ptr %7, align 8
  ret void
}

; Function Attrs: mustprogress nounwind uwtable
define hidden void @_ZN7ElfFile16add_symbol_tableEP14ElfSymbolTable(ptr noundef nonnull align 8 dereferenceable(144) %0, ptr noundef %1) #1 align 2 {
  %3 = alloca ptr, align 8
  %4 = alloca ptr, align 8
  store ptr %0, ptr %3, align 8
  store ptr %1, ptr %4, align 8
  %5 = load ptr, ptr %3, align 8
  %6 = getelementptr inbounds %class.ElfFile, ptr %5, i32 0, i32 4
  %7 = load ptr, ptr %6, align 8
  %8 = icmp eq ptr %7, null
  br i1 %8, label %9, label %12

9:                                                ; preds = %2
  %10 = load ptr, ptr %4, align 8
  %11 = getelementptr inbounds %class.ElfFile, ptr %5, i32 0, i32 4
  store ptr %10, ptr %11, align 8
  br label %18

12:                                               ; preds = %2
  %13 = load ptr, ptr %4, align 8
  %14 = getelementptr inbounds %class.ElfFile, ptr %5, i32 0, i32 4
  %15 = load ptr, ptr %14, align 8
  call void @_ZN14ElfSymbolTable8set_nextEPS_(ptr noundef nonnull align 8 dereferenceable(100) %13, ptr noundef %15)
  %16 = load ptr, ptr %4, align 8
  %17 = getelementptr inbounds %class.ElfFile, ptr %5, i32 0, i32 4
  store ptr %16, ptr %17, align 8
  br label %18

18:                                               ; preds = %12, %9
  ret void
}

; Function Attrs: mustprogress nounwind uwtable
define hidden void @_ZN7ElfFile16add_string_tableEP14ElfStringTable(ptr noundef nonnull align 8 dereferenceable(144) %0, ptr noundef %1) #1 align 2 {
  %3 = alloca ptr, align 8
  %4 = alloca ptr, align 8
  store ptr %0, ptr %3, align 8
  store ptr %1, ptr %4, align 8
  %5 = load ptr, ptr %3, align 8
  %6 = getelementptr inbounds %class.ElfFile, ptr %5, i32 0, i32 5
  %7 = load ptr, ptr %6, align 8
  %8 = icmp eq ptr %7, null
  br i1 %8, label %9, label %12

9:                                                ; preds = %2
  %10 = load ptr, ptr %4, align 8
  %11 = getelementptr inbounds %class.ElfFile, ptr %5, i32 0, i32 5
  store ptr %10, ptr %11, align 8
  br label %18

12:                                               ; preds = %2
  %13 = load ptr, ptr %4, align 8
  %14 = getelementptr inbounds %class.ElfFile, ptr %5, i32 0, i32 5
  %15 = load ptr, ptr %14, align 8
  call void @_ZN14ElfStringTable8set_nextEPS_(ptr noundef nonnull align 8 dereferenceable(108) %13, ptr noundef %15)
  %16 = load ptr, ptr %4, align 8
  %17 = getelementptr inbounds %class.ElfFile, ptr %5, i32 0, i32 5
  store ptr %16, ptr %17, align 8
  br label %18

18:                                               ; preds = %12, %9
  ret void
}

; Function Attrs: mustprogress nounwind uwtable
define hidden noundef zeroext i1 @_ZN10FileReader12set_positionEl(ptr noundef nonnull align 8 dereferenceable(16) %0, i64 noundef %1) unnamed_addr #1 align 2 {
  %3 = alloca ptr, align 8
  %4 = alloca i64, align 8
  store ptr %0, ptr %3, align 8
  store i64 %1, ptr %4, align 8
  %5 = load ptr, ptr %3, align 8
  %6 = getelementptr inbounds %class.FileReader, ptr %5, i32 0, i32 1
  %7 = load ptr, ptr %6, align 8
  %8 = load i64, ptr %4, align 8
  %9 = call i32 @fseek(ptr noundef %7, i64 noundef %8, i32 noundef 0)
  %10 = icmp eq i32 %9, 0
  ret i1 %10
}

; Function Attrs: mustprogress nounwind uwtable
define hidden noundef zeroext i1 @_ZN7ElfFile11is_elf_fileER10Elf64_Ehdr(ptr noundef nonnull align 8 dereferenceable(64) %0) #1 align 2 {
  %2 = alloca ptr, align 8
  store ptr %0, ptr %2, align 8
  %3 = load ptr, ptr %2, align 8
  %4 = getelementptr inbounds %struct.Elf64_Ehdr, ptr %3, i32 0, i32 0
  %5 = getelementptr inbounds [16 x i8], ptr %4, i64 0, i64 0
  %6 = load i8, ptr %5, align 8
  %7 = zext i8 %6 to i32
  %8 = icmp eq i32 127, %7
  br i1 %8, label %9, label %44

9:                                                ; preds = %1
  %10 = load ptr, ptr %2, align 8
  %11 = getelementptr inbounds %struct.Elf64_Ehdr, ptr %10, i32 0, i32 0
  %12 = getelementptr inbounds [16 x i8], ptr %11, i64 0, i64 1
  %13 = load i8, ptr %12, align 1
  %14 = zext i8 %13 to i32
  %15 = icmp eq i32 69, %14
  br i1 %15, label %16, label %44

16:                                               ; preds = %9
  %17 = load ptr, ptr %2, align 8
  %18 = getelementptr inbounds %struct.Elf64_Ehdr, ptr %17, i32 0, i32 0
  %19 = getelementptr inbounds [16 x i8], ptr %18, i64 0, i64 2
  %20 = load i8, ptr %19, align 2
  %21 = zext i8 %20 to i32
  %22 = icmp eq i32 76, %21
  br i1 %22, label %23, label %44

23:                                               ; preds = %16
  %24 = load ptr, ptr %2, align 8
  %25 = getelementptr inbounds %struct.Elf64_Ehdr, ptr %24, i32 0, i32 0
  %26 = getelementptr inbounds [16 x i8], ptr %25, i64 0, i64 3
  %27 = load i8, ptr %26, align 1
  %28 = zext i8 %27 to i32
  %29 = icmp eq i32 70, %28
  br i1 %29, label %30, label %44

30:                                               ; preds = %23
  %31 = load ptr, ptr %2, align 8
  %32 = getelementptr inbounds %struct.Elf64_Ehdr, ptr %31, i32 0, i32 0
  %33 = getelementptr inbounds [16 x i8], ptr %32, i64 0, i64 4
  %34 = load i8, ptr %33, align 4
  %35 = zext i8 %34 to i32
  %36 = icmp ne i32 0, %35
  br i1 %36, label %37, label %44

37:                                               ; preds = %30
  %38 = load ptr, ptr %2, align 8
  %39 = getelementptr inbounds %struct.Elf64_Ehdr, ptr %38, i32 0, i32 0
  %40 = getelementptr inbounds [16 x i8], ptr %39, i64 0, i64 5
  %41 = load i8, ptr %40, align 1
  %42 = zext i8 %41 to i32
  %43 = icmp ne i32 0, %42
  br label %44

44:                                               ; preds = %37, %30, %23, %16, %9, %1
  %45 = phi i1 [ false, %30 ], [ false, %23 ], [ false, %16 ], [ false, %9 ], [ false, %1 ], [ %43, %37 ]
  ret i1 %45
}

; Function Attrs: mustprogress nounwind uwtable
define hidden noundef zeroext i1 @_ZN10FileReader4readEPvm(ptr noundef nonnull align 8 dereferenceable(16) %0, ptr noundef %1, i64 noundef %2) #1 align 2 {
  %4 = alloca ptr, align 8
  %5 = alloca ptr, align 8
  %6 = alloca i64, align 8
  store ptr %0, ptr %4, align 8
  store ptr %1, ptr %5, align 8
  store i64 %2, ptr %6, align 8
  %7 = load ptr, ptr %4, align 8
  %8 = load ptr, ptr %5, align 8
  %9 = load i64, ptr %6, align 8
  %10 = getelementptr inbounds %class.FileReader, ptr %7, i32 0, i32 1
  %11 = load ptr, ptr %10, align 8
  %12 = call i64 @fread(ptr noundef %8, i64 noundef %9, i64 noundef 1, ptr noundef %11)
  %13 = icmp eq i64 %12, 1
  ret i1 %13
}

; Function Attrs: mustprogress nounwind uwtable
define linkonce_odr hidden void @_ZN10FileReaderC2EP8_IO_FILE(ptr noundef nonnull align 8 dereferenceable(16) %0, ptr noundef %1) unnamed_addr #1 comdat align 2 {
  %3 = alloca ptr, align 8
  %4 = alloca ptr, align 8
  store ptr %0, ptr %3, align 8
  store ptr %1, ptr %4, align 8
  %5 = load ptr, ptr %3, align 8
  store ptr getelementptr inbounds inrange(-16, 8) ({ [3 x ptr] }, ptr @_ZTV10FileReader, i32 0, i32 0, i32 2), ptr %5, align 8
  %6 = getelementptr inbounds %class.FileReader, ptr %5, i32 0, i32 1
  %7 = load ptr, ptr %4, align 8
  store ptr %7, ptr %6, align 8
  ret void
}

; Function Attrs: mustprogress nounwind uwtable
define linkonce_odr hidden noundef ptr @_ZNK7ElfFile2fdEv(ptr noundef nonnull align 8 dereferenceable(144) %0) #1 comdat align 2 {
  %2 = alloca ptr, align 8
  store ptr %0, ptr %2, align 8
  %3 = load ptr, ptr %2, align 8
  %4 = getelementptr inbounds %class.ElfFile, ptr %3, i32 0, i32 3
  %5 = load ptr, ptr %4, align 8
  ret ptr %5
}

; Function Attrs: mustprogress nounwind uwtable
define hidden noundef i32 @_ZN7ElfFile11load_tablesEv(ptr noundef nonnull align 8 dereferenceable(144) %0) #1 align 2 {
  %2 = alloca i64, align 8
  %3 = alloca i8, align 1
  %4 = alloca ptr, align 8
  %5 = alloca i64, align 8
  %6 = alloca i8, align 1
  %7 = alloca ptr, align 8
  %8 = alloca i64, align 8
  %9 = alloca ptr, align 8
  %10 = alloca i64, align 8
  %11 = alloca ptr, align 8
  %12 = alloca i32, align 4
  %13 = alloca ptr, align 8
  %14 = alloca %class.FileReader, align 8
  %15 = alloca %struct.Elf64_Shdr, align 8
  %16 = alloca i32, align 4
  %17 = alloca ptr, align 8
  %18 = alloca ptr, align 8
  store ptr %0, ptr %13, align 8
  %19 = load ptr, ptr %13, align 8
  %20 = call noundef ptr @_ZNK7ElfFile2fdEv(ptr noundef nonnull align 8 dereferenceable(144) %19)
  call void @_ZN10FileReaderC2EP8_IO_FILE(ptr noundef nonnull align 8 dereferenceable(16) %14, ptr noundef %20)
  %21 = getelementptr inbounds %class.ElfFile, ptr %19, i32 0, i32 10
  %22 = call noundef zeroext i1 @_ZN10FileReader4readEPvm(ptr noundef nonnull align 8 dereferenceable(16) %14, ptr noundef %21, i64 noundef 64)
  br i1 %22, label %24, label %23

23:                                               ; preds = %1
  store i32 2, ptr %12, align 4
  br label %107

24:                                               ; preds = %1
  %25 = getelementptr inbounds %class.ElfFile, ptr %19, i32 0, i32 10
  %26 = call noundef zeroext i1 @_ZN7ElfFile11is_elf_fileER10Elf64_Ehdr(ptr noundef nonnull align 8 dereferenceable(64) %25)
  br i1 %26, label %28, label %27

27:                                               ; preds = %24
  store i32 2, ptr %12, align 4
  br label %107

28:                                               ; preds = %24
  %29 = getelementptr inbounds %class.ElfFile, ptr %19, i32 0, i32 10
  %30 = getelementptr inbounds %struct.Elf64_Ehdr, ptr %29, i32 0, i32 6
  %31 = load i64, ptr %30, align 8
  %32 = call noundef zeroext i1 @_ZN10FileReader12set_positionEl(ptr noundef nonnull align 8 dereferenceable(16) %14, i64 noundef %31)
  br i1 %32, label %34, label %33

33:                                               ; preds = %28
  store i32 2, ptr %12, align 4
  br label %107

34:                                               ; preds = %28
  store i32 0, ptr %16, align 4
  br label %35

35:                                               ; preds = %103, %34
  %36 = load i32, ptr %16, align 4
  %37 = getelementptr inbounds %class.ElfFile, ptr %19, i32 0, i32 10
  %38 = getelementptr inbounds %struct.Elf64_Ehdr, ptr %37, i32 0, i32 12
  %39 = load i16, ptr %38, align 4
  %40 = zext i16 %39 to i32
  %41 = icmp slt i32 %36, %40
  br i1 %41, label %42, label %106

42:                                               ; preds = %35
  %43 = call noundef zeroext i1 @_ZN10FileReader4readEPvm(ptr noundef nonnull align 8 dereferenceable(16) %14, ptr noundef %15, i64 noundef 64)
  br i1 %43, label %45, label %44

44:                                               ; preds = %42
  store i32 2, ptr %12, align 4
  br label %107

45:                                               ; preds = %42
  %46 = getelementptr inbounds %struct.Elf64_Shdr, ptr %15, i32 0, i32 1
  %47 = load i32, ptr %46, align 4
  %48 = icmp eq i32 %47, 3
  br i1 %48, label %49, label %77

49:                                               ; preds = %45
  store i64 112, ptr %8, align 8
  store ptr @_ZSt7nothrow, ptr %9, align 8
  %50 = load i64, ptr %8, align 8
  %51 = load ptr, ptr %9, align 8
  store i64 %50, ptr %5, align 8
  store i8 9, ptr %6, align 1
  store ptr %51, ptr %7, align 8
  %52 = load i64, ptr %5, align 8
  %53 = load i8, ptr %6, align 1
  %54 = call noundef ptr @_Z12AllocateHeapm8MEMFLAGSN17AllocFailStrategy13AllocFailEnumE(i64 noundef %52, i8 noundef zeroext %53, i32 noundef 1) #7
  %55 = icmp eq ptr %54, null
  br i1 %55, label %59, label %56

56:                                               ; preds = %49
  %57 = call noundef ptr @_ZNK7ElfFile2fdEv(ptr noundef nonnull align 8 dereferenceable(144) %19)
  %58 = load i32, ptr %16, align 4
  call void @_ZN14ElfStringTableC1EP8_IO_FILER10Elf64_Shdri(ptr noundef nonnull align 8 dereferenceable(108) %54, ptr noundef %57, ptr noundef nonnull align 8 dereferenceable(64) %15, i32 noundef %58)
  br label %59

59:                                               ; preds = %56, %49
  %60 = phi ptr [ %54, %56 ], [ null, %49 ]
  store ptr %60, ptr %17, align 8
  %61 = load ptr, ptr %17, align 8
  %62 = icmp eq ptr %61, null
  br i1 %62, label %63, label %64

63:                                               ; preds = %59
  store i32 1, ptr %12, align 4
  br label %107

64:                                               ; preds = %59
  %65 = load i32, ptr %16, align 4
  %66 = getelementptr inbounds %class.ElfFile, ptr %19, i32 0, i32 10
  %67 = getelementptr inbounds %struct.Elf64_Ehdr, ptr %66, i32 0, i32 13
  %68 = load i16, ptr %67, align 2
  %69 = zext i16 %68 to i32
  %70 = icmp eq i32 %65, %69
  br i1 %70, label %71, label %74

71:                                               ; preds = %64
  %72 = load ptr, ptr %17, align 8
  %73 = getelementptr inbounds %class.ElfFile, ptr %19, i32 0, i32 6
  store ptr %72, ptr %73, align 8
  br label %76

74:                                               ; preds = %64
  %75 = load ptr, ptr %17, align 8
  call void @_ZN7ElfFile16add_string_tableEP14ElfStringTable(ptr noundef nonnull align 8 dereferenceable(144) %19, ptr noundef %75)
  br label %76

76:                                               ; preds = %74, %71
  br label %102

77:                                               ; preds = %45
  %78 = getelementptr inbounds %struct.Elf64_Shdr, ptr %15, i32 0, i32 1
  %79 = load i32, ptr %78, align 4
  %80 = icmp eq i32 %79, 2
  br i1 %80, label %85, label %81

81:                                               ; preds = %77
  %82 = getelementptr inbounds %struct.Elf64_Shdr, ptr %15, i32 0, i32 1
  %83 = load i32, ptr %82, align 4
  %84 = icmp eq i32 %83, 11
  br i1 %84, label %85, label %101

85:                                               ; preds = %81, %77
  store i64 104, ptr %10, align 8
  store ptr @_ZSt7nothrow, ptr %11, align 8
  %86 = load i64, ptr %10, align 8
  %87 = load ptr, ptr %11, align 8
  store i64 %86, ptr %2, align 8
  store i8 9, ptr %3, align 1
  store ptr %87, ptr %4, align 8
  %88 = load i64, ptr %2, align 8
  %89 = load i8, ptr %3, align 1
  %90 = call noundef ptr @_Z12AllocateHeapm8MEMFLAGSN17AllocFailStrategy13AllocFailEnumE(i64 noundef %88, i8 noundef zeroext %89, i32 noundef 1) #7
  %91 = icmp eq ptr %90, null
  br i1 %91, label %94, label %92

92:                                               ; preds = %85
  %93 = call noundef ptr @_ZNK7ElfFile2fdEv(ptr noundef nonnull align 8 dereferenceable(144) %19)
  call void @_ZN14ElfSymbolTableC1EP8_IO_FILER10Elf64_Shdr(ptr noundef nonnull align 8 dereferenceable(100) %90, ptr noundef %93, ptr noundef nonnull align 8 dereferenceable(64) %15)
  br label %94

94:                                               ; preds = %92, %85
  %95 = phi ptr [ %90, %92 ], [ null, %85 ]
  store ptr %95, ptr %18, align 8
  %96 = load ptr, ptr %18, align 8
  %97 = icmp eq ptr %96, null
  br i1 %97, label %98, label %99

98:                                               ; preds = %94
  store i32 1, ptr %12, align 4
  br label %107

99:                                               ; preds = %94
  %100 = load ptr, ptr %18, align 8
  call void @_ZN7ElfFile16add_symbol_tableEP14ElfSymbolTable(ptr noundef nonnull align 8 dereferenceable(144) %19, ptr noundef %100)
  br label %101

101:                                              ; preds = %99, %81
  br label %102

102:                                              ; preds = %101, %76
  br label %103

103:                                              ; preds = %102
  %104 = load i32, ptr %16, align 4
  %105 = add nsw i32 %104, 1
  store i32 %105, ptr %16, align 4
  br label %35, !llvm.loop !6

106:                                              ; preds = %35
  store i32 0, ptr %12, align 4
  br label %107

107:                                              ; preds = %106, %98, %63, %44, %33, %27, %23
  %108 = load i32, ptr %12, align 4
  ret i32 %108
}