; Function Attrs: mustprogress nounwind uwtable
define hidden noundef range(i32 0, 3) i32 @_ZN7ElfFile11load_tablesEv(ptr nocapture noundef nonnull align 8 dereferenceable(144) %0) local_unnamed_addr #0 align 2 {
  %2 = alloca %struct.Elf64_Shdr, align 8
  %3 = getelementptr inbounds i8, ptr %0, i64 24
  %4 = load ptr, ptr %3, align 8
  %5 = getelementptr inbounds i8, ptr %0, i64 80
  %6 = tail call i64 @fread(ptr noundef nonnull %5, i64 noundef 64, i64 noundef 1, ptr noundef %4)
  %7 = icmp eq i64 %6, 1
  br i1 %7, label %8, label %_ZN7ElfFile11is_elf_fileER10Elf64_Ehdr.exit.thread

8:                                                ; preds = %1
  %9 = load <4 x i8>, ptr %5, align 8
  %.fr = freeze <4 x i8> %9
  %10 = getelementptr inbounds i8, ptr %0, i64 84
  %11 = load i8, ptr %10, align 4
  %.fr46 = freeze i8 %11
  %.not.i = icmp ne i8 %.fr46, 0
  %12 = getelementptr inbounds i8, ptr %0, i64 85
  %13 = load i8, ptr %12, align 1
  %14 = icmp ne i8 %13, 0
  %.fr.scalar = bitcast <4 x i8> %.fr to i32
  %15 = icmp eq i32 %.fr.scalar, 1179403647
  %op.rdx = and i1 %15, %.not.i
  %op.rdx45 = select i1 %op.rdx, i1 %14, i1 false
  br i1 %op.rdx45, label %16, label %_ZN7ElfFile11is_elf_fileER10Elf64_Ehdr.exit.thread

16:                                               ; preds = %8
  %17 = getelementptr inbounds i8, ptr %0, i64 120
  %18 = load i64, ptr %17, align 8
  %19 = tail call i32 @fseek(ptr noundef %4, i64 noundef %18, i32 noundef 0)
  %20 = icmp eq i32 %19, 0
  br i1 %20, label %.preheader, label %_ZN7ElfFile11is_elf_fileER10Elf64_Ehdr.exit.thread

.preheader:                                       ; preds = %16
  %21 = getelementptr inbounds i8, ptr %0, i64 140
  %22 = load i16, ptr %21, align 4
  %.not = icmp eq i16 %22, 0
  br i1 %.not, label %_ZN7ElfFile11is_elf_fileER10Elf64_Ehdr.exit.thread, label %.lr.ph

.lr.ph:                                           ; preds = %.preheader
  %23 = getelementptr inbounds i8, ptr %2, i64 4
  %24 = getelementptr inbounds i8, ptr %0, i64 32
  %25 = getelementptr inbounds i8, ptr %0, i64 142
  %26 = getelementptr inbounds i8, ptr %0, i64 40
  %27 = getelementptr inbounds i8, ptr %0, i64 48
  br label %28

28:                                               ; preds = %.lr.ph, %54
  %.02038 = phi i32 [ 0, %.lr.ph ], [ %55, %54 ]
  %29 = call i64 @fread(ptr noundef nonnull %2, i64 noundef 64, i64 noundef 1, ptr noundef %4)
  %30 = icmp eq i64 %29, 1
  br i1 %30, label %31, label %_ZN7ElfFile11is_elf_fileER10Elf64_Ehdr.exit.thread

31:                                               ; preds = %28
  %32 = load i32, ptr %23, align 4
  switch i32 %32, label %54 [
    i32 3, label %33
    i32 11, label %46
    i32 2, label %46
  ]

33:                                               ; preds = %31
  %34 = call noundef ptr @_Z12AllocateHeapm8MEMFLAGSN17AllocFailStrategy13AllocFailEnumE(i64 noundef 112, i8 noundef zeroext 9, i32 noundef 1) #15
  %35 = icmp eq ptr %34, null
  br i1 %35, label %_ZN7ElfFile11is_elf_fileER10Elf64_Ehdr.exit.thread, label %36

36:                                               ; preds = %33
  %37 = load ptr, ptr %3, align 8
  call void @_ZN14ElfStringTableC1EP8_IO_FILER10Elf64_Shdri(ptr noundef nonnull align 8 dereferenceable(108) %34, ptr noundef %37, ptr noundef nonnull align 8 dereferenceable(64) %2, i32 noundef %.02038) #15
  %38 = load i16, ptr %25, align 2
  %39 = zext i16 %38 to i32
  %40 = icmp eq i32 %.02038, %39
  br i1 %40, label %41, label %42

41:                                               ; preds = %36
  store ptr %34, ptr %27, align 8
  br label %54

42:                                               ; preds = %36
  %43 = load ptr, ptr %26, align 8
  %44 = icmp eq ptr %43, null
  br i1 %44, label %_ZN7ElfFile16add_string_tableEP14ElfStringTable.exit, label %45

45:                                               ; preds = %42
  store ptr %43, ptr %34, align 8
  br label %_ZN7ElfFile16add_string_tableEP14ElfStringTable.exit

_ZN7ElfFile16add_string_tableEP14ElfStringTable.exit: ; preds = %42, %45
  store ptr %34, ptr %26, align 8
  br label %54

46:                                               ; preds = %31, %31
  %47 = call noundef ptr @_Z12AllocateHeapm8MEMFLAGSN17AllocFailStrategy13AllocFailEnumE(i64 noundef 104, i8 noundef zeroext 9, i32 noundef 1) #15
  %48 = icmp eq ptr %47, null
  br i1 %48, label %_ZN7ElfFile11is_elf_fileER10Elf64_Ehdr.exit.thread, label %49

49:                                               ; preds = %46
  %50 = load ptr, ptr %3, align 8
  call void @_ZN14ElfSymbolTableC1EP8_IO_FILER10Elf64_Shdr(ptr noundef nonnull align 8 dereferenceable(100) %47, ptr noundef %50, ptr noundef nonnull align 8 dereferenceable(64) %2) #15
  %51 = load ptr, ptr %24, align 8
  %52 = icmp eq ptr %51, null
  br i1 %52, label %_ZN7ElfFile16add_symbol_tableEP14ElfSymbolTable.exit, label %53

53:                                               ; preds = %49
  store ptr %51, ptr %47, align 8
  br label %_ZN7ElfFile16add_symbol_tableEP14ElfSymbolTable.exit

_ZN7ElfFile16add_symbol_tableEP14ElfSymbolTable.exit: ; preds = %49, %53
  store ptr %47, ptr %24, align 8
  br label %54

54:                                               ; preds = %31, %_ZN7ElfFile16add_string_tableEP14ElfStringTable.exit, %41, %_ZN7ElfFile16add_symbol_tableEP14ElfSymbolTable.exit
  %55 = add nuw nsw i32 %.02038, 1
  %56 = load i16, ptr %21, align 4
  %57 = zext i16 %56 to i32
  %58 = icmp ult i32 %55, %57
  br i1 %58, label %28, label %_ZN7ElfFile11is_elf_fileER10Elf64_Ehdr.exit.thread, !llvm.loop !6

_ZN7ElfFile11is_elf_fileER10Elf64_Ehdr.exit.thread: ; preds = %28, %54, %33, %46, %.preheader, %8, %16, %1
  %.0 = phi i32 [ 2, %1 ], [ 2, %16 ], [ 2, %8 ], [ 0, %.preheader ], [ 2, %28 ], [ 0, %54 ], [ 1, %33 ], [ 1, %46 ]
  ret i32 %.0
}